target datalayout = "e-m:e-p270:32:32-p271:32:32-p272:64:64-i64:64-i128:128-f80:128-n8:16:32:64-S128"
target triple = "x86_64-pc-linux-gnu"

%"struct.std::nothrow_t" = type { i8 }
%"class.zmq::atomic_counter_t" = type { %"struct.std::atomic", [4 x i8] }
%"struct.std::atomic" = type { %"struct.std::__atomic_base" }
%"struct.std::__atomic_base" = type { i32 }

@stderr = external global ptr, align 8
@.str = private unnamed_addr constant [36 x i8] c"FATAL ERROR: OUT OF MEMORY (%s:%d)\0A\00", align 1
@.str.1 = private unnamed_addr constant [109 x i8] c"generated/home/dtcxzyw/WorkSpace/Projects/compilers/llvm-opt-benchmark/bench/libzmq/libzmq/src/zmq_utils.cpp\00", align 1
@.str.2 = private unnamed_addr constant [27 x i8] c"FATAL ERROR: OUT OF MEMORY\00", align 1
@_ZSt7nothrow = external global %"struct.std::nothrow_t", align 1

; Function Attrs: mustprogress nounwind uwtable
define linkonce_odr void @_ZNSt13__atomic_baseIjEC2Ej(ptr noundef nonnull align 4 dereferenceable(4) %0, i32 noundef %1) unnamed_addr #7 comdat align 2 {
  %3 = alloca ptr, align 8
  %4 = alloca i32, align 4
  store ptr %0, ptr %3, align 8, !tbaa !76
  store i32 %1, ptr %4, align 4, !tbaa !3
  %5 = load ptr, ptr %3, align 8
  %6 = getelementptr inbounds nuw %"struct.std::__atomic_base", ptr %5, i32 0, i32 0
  %7 = load i32, ptr %4, align 4, !tbaa !3
  store i32 %7, ptr %6, align 4, !tbaa !78
  ret void
}

; Function Attrs: mustprogress nounwind uwtable
define linkonce_odr void @_ZNSt6atomicIjEC2Ej(ptr noundef nonnull align 4 dereferenceable(4) %0, i32 noundef %1) unnamed_addr #7 comdat align 2 {
  %3 = alloca ptr, align 8
  %4 = alloca i32, align 4
  store ptr %0, ptr %3, align 8, !tbaa !74
  store i32 %1, ptr %4, align 4, !tbaa !3
  %5 = load ptr, ptr %3, align 8
  %6 = load i32, ptr %4, align 4, !tbaa !3
  call void @_ZNSt13__atomic_baseIjEC2Ej(ptr noundef nonnull align 4 dereferenceable(4) %5, i32 noundef %6) #15
  ret void
}

; Function Attrs: mustprogress nounwind uwtable
define linkonce_odr void @_ZN3zmq16atomic_counter_tC2Ej(ptr noundef nonnull align 8 dereferenceable(4) %0, i32 noundef %1) unnamed_addr #7 comdat align 2 {
  %3 = alloca ptr, align 8
  %4 = alloca i32, align 4
  store ptr %0, ptr %3, align 8, !tbaa !41
  store i32 %1, ptr %4, align 4, !tbaa !3
  %5 = load ptr, ptr %3, align 8
  %6 = getelementptr inbounds nuw %"class.zmq::atomic_counter_t", ptr %5, i32 0, i32 0
  %7 = load i32, ptr %4, align 4, !tbaa !3
  call void @_ZNSt6atomicIjEC2Ej(ptr noundef nonnull align 4 dereferenceable(4) %6, i32 noundef %7) #15
  ret void
}

; Function Attrs: mustprogress uwtable
define ptr @zmq_atomic_counter_new() #0 {
  %1 = alloca ptr, align 8
  %2 = alloca i1, align 1
  call void @llvm.lifetime.start.p0(i64 8, ptr %1) #15
  %3 = call noalias noundef ptr @_ZnwmRKSt9nothrow_t(i64 noundef 8, ptr noundef nonnull align 1 dereferenceable(1) @_ZSt7nothrow) #17
  %4 = icmp eq ptr %3, null
  store i1 false, ptr %2, align 1
  br i1 %4, label %6, label %5

5:                                                ; preds = %0
  store i1 true, ptr %2, align 1
  call void @_ZN3zmq16atomic_counter_tC2Ej(ptr noundef nonnull align 8 dereferenceable(4) %3, i32 noundef 0) #15
  br label %6

6:                                                ; preds = %5, %0
  %7 = phi ptr [ %3, %5 ], [ null, %0 ]
  store ptr %7, ptr %1, align 8, !tbaa !41
  br label %8

8:                                                ; preds = %6
  %9 = load ptr, ptr %1, align 8, !tbaa !41
  %10 = icmp ne ptr %9, null
  %11 = xor i1 %10, true
  %12 = zext i1 %11 to i64
  %13 = call i64 @llvm.expect.i64(i64 %12, i64 0)
  %14 = icmp ne i64 %13, 0
  br i1 %14, label %15, label %20

15:                                               ; preds = %8
  %16 = load ptr, ptr @stderr, align 8, !tbaa !10
  %17 = call i32 (ptr, ptr, ...) @fprintf(ptr noundef %16, ptr noundef @.str, ptr noundef @.str.1, i32 noundef 258) #15
  %18 = load ptr, ptr @stderr, align 8, !tbaa !10
  %19 = call i32 @fflush(ptr noundef %18)
  call void @_ZN3zmq9zmq_abortEPKc(ptr noundef @.str.2)
  br label %20

20:                                               ; preds = %15, %8
  br label %21

21:                                               ; preds = %20
  br label %22

22:                                               ; preds = %21
  %23 = load ptr, ptr %1, align 8, !tbaa !41
  call void @llvm.lifetime.end.p0(i64 8, ptr %1) #15
  ret ptr %23
}