; Function Attrs: mustprogress uwtable
define noalias noundef ptr @zmq_atomic_counter_new() local_unnamed_addr #0 {
  %1 = tail call noalias noundef dereferenceable_or_null(8) ptr @_ZnwmRKSt9nothrow_t(i64 noundef 8, ptr noundef nonnull align 1 dereferenceable(1) @_ZSt7nothrow) #21
  %2 = icmp eq ptr %1, null
  br i1 %2, label %4, label %3

3:                                                ; preds = %0
  store i32 0, ptr %1, align 4, !tbaa !37
  br label %9

4:                                                ; preds = %0
  %5 = load ptr, ptr @stderr, align 8, !tbaa !4
  %6 = tail call i32 (ptr, ptr, ...) @fprintf(ptr noundef %5, ptr noundef nonnull @.str, ptr noundef nonnull @.str.1, i32 noundef 258) #19
  %7 = load ptr, ptr @stderr, align 8, !tbaa !4
  %8 = tail call i32 @fflush(ptr noundef %7)
  tail call void @_ZN3zmq9zmq_abortEPKc(ptr noundef nonnull @.str.2)
  br label %9

9:                                                ; preds = %3, %4
  ret ptr %1
}